target datalayout = "e-m:e-p270:32:32-p271:32:32-p272:64:64-i64:64-i128:128-f80:128-n8:16:32:64-S128"
target triple = "x86_64-pc-linux-gnu"

%struct.Abc_Obj_t_ = type { ptr, ptr, i32, i32, %struct.Vec_Int_t_, %struct.Vec_Int_t_, %union.anon, %union.anon.0 }
%struct.Vec_Int_t_ = type { i32, i32, ptr }
%union.anon = type { ptr }
%union.anon.0 = type { ptr }
%struct.Abc_Ntk_t_ = type { i32, i32, ptr, ptr, ptr, ptr, ptr, ptr, ptr, ptr, ptr, ptr, ptr, [11 x i32], i32, i32, i32, i32, ptr, i32, ptr, ptr, i32, i32, i32, double, i32, %struct.Vec_Int_t_, ptr, ptr, ptr, ptr, ptr, float, i32, ptr, ptr, ptr, ptr, ptr, ptr, ptr, ptr, ptr, ptr, ptr, ptr, ptr, ptr, ptr, ptr, ptr, ptr, ptr, ptr, ptr, ptr }
%struct.Vec_Ptr_t_ = type { i32, i32, ptr }

@.str.1 = private unnamed_addr constant [2 x i8] c"w\00", align 1
@stdout = external global ptr, align 8
@.str.2 = private unnamed_addr constant [41 x i8] c"Cannot open the intermediate file \22%s\22.\0A\00", align 1
@.str.30 = private unnamed_addr constant [7 x i8] c"%s.dot\00", align 1

; Function Attrs: nounwind uwtable
define internal void @Abc_ShowGetFileName(ptr noundef %0, ptr noundef %1) #0 {
  %3 = alloca ptr, align 8
  %4 = alloca ptr, align 8
  %5 = alloca ptr, align 8
  store ptr %0, ptr %3, align 8, !tbaa !10
  store ptr %1, ptr %4, align 8, !tbaa !10
  call void @llvm.lifetime.start.p0(i64 8, ptr %5) #8
  %6 = load ptr, ptr %4, align 8, !tbaa !10
  %7 = load ptr, ptr %3, align 8, !tbaa !10
  %8 = call i32 (ptr, ptr, ...) @sprintf(ptr noundef %6, ptr noundef @.str.30, ptr noundef %7) #8
  %9 = load ptr, ptr %4, align 8, !tbaa !10
  store ptr %9, ptr %5, align 8, !tbaa !10
  br label %10

10:                                               ; preds = %52, %2
  %11 = load ptr, ptr %5, align 8, !tbaa !10
  %12 = load i8, ptr %11, align 1, !tbaa !39
  %13 = icmp ne i8 %12, 0
  br i1 %13, label %14, label %55

14:                                               ; preds = %10
  %15 = load ptr, ptr %5, align 8, !tbaa !10
  %16 = load i8, ptr %15, align 1, !tbaa !39
  %17 = sext i8 %16 to i32
  %18 = icmp sge i32 %17, 48
  br i1 %18, label %19, label %24

19:                                               ; preds = %14
  %20 = load ptr, ptr %5, align 8, !tbaa !10
  %21 = load i8, ptr %20, align 1, !tbaa !39
  %22 = sext i8 %21 to i32
  %23 = icmp sle i32 %22, 57
  br i1 %23, label %51, label %24

24:                                               ; preds = %19, %14
  %25 = load ptr, ptr %5, align 8, !tbaa !10
  %26 = load i8, ptr %25, align 1, !tbaa !39
  %27 = sext i8 %26 to i32
  %28 = icmp sge i32 %27, 97
  br i1 %28, label %29, label %34

29:                                               ; preds = %24
  %30 = load ptr, ptr %5, align 8, !tbaa !10
  %31 = load i8, ptr %30, align 1, !tbaa !39
  %32 = sext i8 %31 to i32
  %33 = icmp sle i32 %32, 122
  br i1 %33, label %51, label %34

34:                                               ; preds = %29, %24
  %35 = load ptr, ptr %5, align 8, !tbaa !10
  %36 = load i8, ptr %35, align 1, !tbaa !39
  %37 = sext i8 %36 to i32
  %38 = icmp sge i32 %37, 65
  br i1 %38, label %39, label %44

39:                                               ; preds = %34
  %40 = load ptr, ptr %5, align 8, !tbaa !10
  %41 = load i8, ptr %40, align 1, !tbaa !39
  %42 = sext i8 %41 to i32
  %43 = icmp sle i32 %42, 90
  br i1 %43, label %51, label %44

44:                                               ; preds = %39, %34
  %45 = load ptr, ptr %5, align 8, !tbaa !10
  %46 = load i8, ptr %45, align 1, !tbaa !39
  %47 = sext i8 %46 to i32
  %48 = icmp eq i32 %47, 46
  br i1 %48, label %51, label %49

49:                                               ; preds = %44
  %50 = load ptr, ptr %5, align 8, !tbaa !10
  store i8 95, ptr %50, align 1, !tbaa !39
  br label %51

51:                                               ; preds = %49, %44, %39, %29, %19
  br label %52

52:                                               ; preds = %51
  %53 = load ptr, ptr %5, align 8, !tbaa !10
  %54 = getelementptr inbounds nuw i8, ptr %53, i32 1
  store ptr %54, ptr %5, align 8, !tbaa !10
  br label %10, !llvm.loop !40

55:                                               ; preds = %10
  call void @llvm.lifetime.end.p0(i64 8, ptr %5) #8
  ret void
}

; Function Attrs: nounwind uwtable
define void @Abc_NodeShowBdd(ptr noundef %0, i32 noundef %1) #0 {
  %3 = alloca ptr, align 8
  %4 = alloca i32, align 4
  %5 = alloca ptr, align 8
  %6 = alloca ptr, align 8
  %7 = alloca [200 x i8], align 16
  %8 = alloca ptr, align 8
  %9 = alloca ptr, align 8
  %10 = alloca i32, align 4
  %11 = alloca ptr, align 8
  store ptr %0, ptr %3, align 8, !tbaa !16
  store i32 %1, ptr %4, align 4, !tbaa !14
  call void @llvm.lifetime.start.p0(i64 8, ptr %5) #8
  call void @llvm.lifetime.start.p0(i64 8, ptr %6) #8
  call void @llvm.lifetime.start.p0(i64 200, ptr %7) #8
  call void @llvm.lifetime.start.p0(i64 8, ptr %8) #8
  call void @llvm.lifetime.start.p0(i64 8, ptr %9) #8
  %12 = load ptr, ptr %3, align 8, !tbaa !16
  %13 = getelementptr inbounds nuw %struct.Abc_Obj_t_, ptr %12, i32 0, i32 0
  %14 = load ptr, ptr %13, align 8, !tbaa !18
  %15 = getelementptr inbounds nuw %struct.Abc_Ntk_t_, ptr %14, i32 0, i32 30
  %16 = load ptr, ptr %15, align 8, !tbaa !23
  store ptr %16, ptr %9, align 8, !tbaa !3
  %17 = load ptr, ptr %3, align 8, !tbaa !16
  %18 = call ptr @Abc_ObjName(ptr noundef %17)
  %19 = getelementptr inbounds [200 x i8], ptr %7, i64 0, i64 0
  call void @Abc_ShowGetFileName(ptr noundef %18, ptr noundef %19)
  %20 = getelementptr inbounds [200 x i8], ptr %7, i64 0, i64 0
  %21 = call noalias ptr @fopen(ptr noundef %20, ptr noundef @.str.1)
  store ptr %21, ptr %5, align 8, !tbaa !12
  %22 = icmp eq ptr %21, null
  br i1 %22, label %23, label %27

23:                                               ; preds = %2
  %24 = load ptr, ptr @stdout, align 8, !tbaa !12
  %25 = getelementptr inbounds [200 x i8], ptr %7, i64 0, i64 0
  %26 = call i32 (ptr, ptr, ...) @fprintf(ptr noundef %24, ptr noundef @.str.2, ptr noundef %25) #8
  store i32 1, ptr %10, align 4
  br label %66

27:                                               ; preds = %2
  %28 = load ptr, ptr %3, align 8, !tbaa !16
  %29 = call ptr @Abc_NodeGetFaninNames(ptr noundef %28)
  store ptr %29, ptr %6, align 8, !tbaa !36
  %30 = load ptr, ptr %3, align 8, !tbaa !16
  %31 = call ptr @Abc_ObjName(ptr noundef %30)
  store ptr %31, ptr %8, align 8, !tbaa !10
  %32 = load i32, ptr %4, align 4, !tbaa !14
  %33 = icmp ne i32 %32, 0
  br i1 %33, label %34, label %43

34:                                               ; preds = %27
  %35 = load ptr, ptr %9, align 8, !tbaa !3
  %36 = load ptr, ptr %3, align 8, !tbaa !16
  %37 = getelementptr inbounds nuw %struct.Abc_Obj_t_, ptr %36, i32 0, i32 6
  %38 = load ptr, ptr %6, align 8, !tbaa !36
  %39 = getelementptr inbounds nuw %struct.Vec_Ptr_t_, ptr %38, i32 0, i32 2
  %40 = load ptr, ptr %39, align 8, !tbaa !37
  %41 = load ptr, ptr %5, align 8, !tbaa !12
  %42 = call i32 @Cudd_DumpDot(ptr noundef %35, i32 noundef 1, ptr noundef %37, ptr noundef %40, ptr noundef %8, ptr noundef %41)
  br label %58

43:                                               ; preds = %27
  call void @llvm.lifetime.start.p0(i64 8, ptr %11) #8
  %44 = load ptr, ptr %9, align 8, !tbaa !3
  %45 = load ptr, ptr %3, align 8, !tbaa !16
  %46 = getelementptr inbounds nuw %struct.Abc_Obj_t_, ptr %45, i32 0, i32 6
  %47 = load ptr, ptr %46, align 8, !tbaa !39
  %48 = call ptr @Cudd_BddToAdd(ptr noundef %44, ptr noundef %47)
  store ptr %48, ptr %11, align 8, !tbaa !8
  %49 = load ptr, ptr %11, align 8, !tbaa !8
  call void @Cudd_Ref(ptr noundef %49)
  %50 = load ptr, ptr %9, align 8, !tbaa !3
  %51 = load ptr, ptr %6, align 8, !tbaa !36
  %52 = getelementptr inbounds nuw %struct.Vec_Ptr_t_, ptr %51, i32 0, i32 2
  %53 = load ptr, ptr %52, align 8, !tbaa !37
  %54 = load ptr, ptr %5, align 8, !tbaa !12
  %55 = call i32 @Cudd_DumpDot(ptr noundef %50, i32 noundef 1, ptr noundef %11, ptr noundef %53, ptr noundef %8, ptr noundef %54)
  %56 = load ptr, ptr %9, align 8, !tbaa !3
  %57 = load ptr, ptr %11, align 8, !tbaa !8
  call void @Cudd_RecursiveDeref(ptr noundef %56, ptr noundef %57)
  call void @llvm.lifetime.end.p0(i64 8, ptr %11) #8
  br label %58

58:                                               ; preds = %43, %34
  %59 = load ptr, ptr %6, align 8, !tbaa !36
  call void @Abc_NodeFreeNames(ptr noundef %59)
  %60 = load ptr, ptr %3, align 8, !tbaa !16
  %61 = getelementptr inbounds nuw %struct.Abc_Obj_t_, ptr %60, i32 0, i32 0
  %62 = load ptr, ptr %61, align 8, !tbaa !18
  call void @Abc_NtkCleanCopy(ptr noundef %62)
  %63 = load ptr, ptr %5, align 8, !tbaa !12
  %64 = call i32 @fclose(ptr noundef %63)
  %65 = getelementptr inbounds [200 x i8], ptr %7, i64 0, i64 0
  call void @Abc_ShowFile(ptr noundef %65, i32 noundef 0)
  store i32 0, ptr %10, align 4
  br label %66

66:                                               ; preds = %58, %23
  call void @llvm.lifetime.end.p0(i64 8, ptr %9) #8
  call void @llvm.lifetime.end.p0(i64 8, ptr %8) #8
  call void @llvm.lifetime.end.p0(i64 200, ptr %7) #8
  call void @llvm.lifetime.end.p0(i64 8, ptr %6) #8
  call void @llvm.lifetime.end.p0(i64 8, ptr %5) #8
  %67 = load i32, ptr %10, align 4
  switch i32 %67, label %69 [
    i32 0, label %68
    i32 1, label %68
  ]

68:                                               ; preds = %66, %66
  ret void

69:                                               ; preds = %66
  unreachable
}