; Function Attrs: nounwind uwtable
define void @Abc_NodeShowBdd(ptr noundef %0, i32 noundef %1) local_unnamed_addr #0 {
  %3 = alloca [200 x i8], align 16
  %4 = alloca ptr, align 8
  %5 = alloca ptr, align 8
  call void @llvm.lifetime.start.p0(i64 200, ptr nonnull %3) #10
  call void @llvm.lifetime.start.p0(i64 8, ptr nonnull %4) #10
  %6 = load ptr, ptr %0, align 8, !tbaa !10
  %7 = getelementptr inbounds nuw i8, ptr %6, i64 256
  %8 = load ptr, ptr %7, align 8, !tbaa !17
  %9 = tail call ptr @Abc_ObjName(ptr noundef nonnull %0) #10
  %10 = call i32 (ptr, ptr, ...) @sprintf(ptr noundef nonnull dereferenceable(1) %3, ptr noundef nonnull dereferenceable(1) @.str.30, ptr noundef %9) #10
  %11 = load i8, ptr %3, align 16, !tbaa !31
  %.not21.i = icmp eq i8 %11, 0
  br i1 %.not21.i, label %Abc_ShowGetFileName.exit, label %.lr.ph.i

.lr.ph.i:                                         ; preds = %2, %19
  %12 = phi i8 [ %21, %19 ], [ %11, %2 ]
  %.022.i = phi ptr [ %20, %19 ], [ %3, %2 ]
  %13 = add i8 %12, -48
  %or.cond.i = icmp ult i8 %13, 10
  %14 = add i8 %12, -97
  %or.cond17.i = icmp ult i8 %14, 26
  %or.cond20.i = or i1 %or.cond.i, %or.cond17.i
  br i1 %or.cond20.i, label %19, label %15

15:                                               ; preds = %.lr.ph.i
  %16 = add i8 %12, -65
  %or.cond18.i = icmp ult i8 %16, 26
  %17 = icmp eq i8 %12, 46
  %or.cond19.i = or i1 %17, %or.cond18.i
  br i1 %or.cond19.i, label %19, label %18

18:                                               ; preds = %15
  store i8 95, ptr %.022.i, align 1, !tbaa !31
  br label %19

19:                                               ; preds = %18, %15, %.lr.ph.i
  %20 = getelementptr inbounds nuw i8, ptr %.022.i, i64 1
  %21 = load i8, ptr %20, align 1, !tbaa !31
  %.not.i = icmp eq i8 %21, 0
  br i1 %.not.i, label %Abc_ShowGetFileName.exit, label %.lr.ph.i, !llvm.loop !32

Abc_ShowGetFileName.exit:                         ; preds = %19, %2
  %22 = call noalias ptr @fopen(ptr noundef nonnull %3, ptr noundef nonnull @.str.1)
  %23 = icmp eq ptr %22, null
  br i1 %23, label %24, label %27

24:                                               ; preds = %Abc_ShowGetFileName.exit
  %25 = load ptr, ptr @stdout, align 8, !tbaa !8
  %26 = call i32 (ptr, ptr, ...) @fprintf(ptr noundef %25, ptr noundef nonnull @.str.2, ptr noundef nonnull %3) #10
  br label %46

27:                                               ; preds = %Abc_ShowGetFileName.exit
  %28 = tail call ptr @Abc_NodeGetFaninNames(ptr noundef nonnull %0) #10
  %29 = tail call ptr @Abc_ObjName(ptr noundef nonnull %0) #10
  store ptr %29, ptr %4, align 8, !tbaa !34
  %.not = icmp eq i32 %1, 0
  br i1 %.not, label %35, label %30

30:                                               ; preds = %27
  %31 = getelementptr inbounds nuw i8, ptr %0, i64 56
  %32 = getelementptr inbounds nuw i8, ptr %28, i64 8
  %33 = load ptr, ptr %32, align 8, !tbaa !35
  %34 = call i32 @Cudd_DumpDot(ptr noundef %8, i32 noundef 1, ptr noundef nonnull %31, ptr noundef %33, ptr noundef nonnull %4, ptr noundef nonnull %22) #10
  br label %43

35:                                               ; preds = %27
  call void @llvm.lifetime.start.p0(i64 8, ptr nonnull %5) #10
  %36 = getelementptr inbounds nuw i8, ptr %0, i64 56
  %37 = load ptr, ptr %36, align 8, !tbaa !31
  %38 = tail call ptr @Cudd_BddToAdd(ptr noundef %8, ptr noundef %37) #10
  store ptr %38, ptr %5, align 8, !tbaa !3
  tail call void @Cudd_Ref(ptr noundef %38) #10
  %39 = getelementptr inbounds nuw i8, ptr %28, i64 8
  %40 = load ptr, ptr %39, align 8, !tbaa !35
  %41 = call i32 @Cudd_DumpDot(ptr noundef %8, i32 noundef 1, ptr noundef nonnull %5, ptr noundef %40, ptr noundef nonnull %4, ptr noundef nonnull %22) #10
  %42 = load ptr, ptr %5, align 8, !tbaa !3
  call void @Cudd_RecursiveDeref(ptr noundef %8, ptr noundef %42) #10
  call void @llvm.lifetime.end.p0(i64 8, ptr nonnull %5) #10
  br label %43

43:                                               ; preds = %35, %30
  call void @Abc_NodeFreeNames(ptr noundef nonnull %28) #10
  %44 = load ptr, ptr %0, align 8, !tbaa !10
  call void @Abc_NtkCleanCopy(ptr noundef %44) #10
  %45 = call i32 @fclose(ptr noundef nonnull %22)
  call void @Abc_ShowFile(ptr noundef nonnull %3, i32 noundef 0)
  br label %46

46:                                               ; preds = %43, %24
  call void @llvm.lifetime.end.p0(i64 8, ptr nonnull %4) #10
  call void @llvm.lifetime.end.p0(i64 200, ptr nonnull %3) #10
  ret void
}